target datalayout = "e-m:e-p270:32:32-p271:32:32-p272:64:64-i64:64-i128:128-f80:128-n8:16:32:64-S128"
target triple = "x86_64-pc-linux-gnu"

%"class.colvarmodule::rvector" = type { double, double, double }
%class.colvarvalue = type { i32, double, %"class.colvarmodule::rvector", %"class.colvarmodule::quaternion", %"class.colvarmodule::vector1d", %"class.std::vector.10", %"class.std::vector.15", %"class.std::vector.15" }
%"class.colvarmodule::vector1d" = type { %"class.std::vector.5" }
%"class.std::vector.5" = type { %"struct.std::_Vector_base.6" }
%"struct.std::_Vector_base.6" = type { %"struct.std::_Vector_base<double, std::allocator<double>>::_Vector_impl" }
%"struct.std::_Vector_base<double, std::allocator<double>>::_Vector_impl" = type { %"struct.std::_Vector_base<double, std::allocator<double>>::_Vector_impl_data" }
%"struct.std::_Vector_base<double, std::allocator<double>>::_Vector_impl_data" = type { ptr, ptr, ptr }
%"class.std::vector.10" = type { %"struct.std::_Vector_base.11" }
%"struct.std::_Vector_base.11" = type { %"struct.std::_Vector_base<colvarvalue::Type, std::allocator<colvarvalue::Type>>::_Vector_impl" }
%"struct.std::_Vector_base<colvarvalue::Type, std::allocator<colvarvalue::Type>>::_Vector_impl" = type { %"struct.std::_Vector_base<colvarvalue::Type, std::allocator<colvarvalue::Type>>::_Vector_impl_data" }
%"struct.std::_Vector_base<colvarvalue::Type, std::allocator<colvarvalue::Type>>::_Vector_impl_data" = type { ptr, ptr, ptr }
%"class.std::vector.15" = type { %"struct.std::_Vector_base.16" }
%"struct.std::_Vector_base.16" = type { %"struct.std::_Vector_base<int, std::allocator<int>>::_Vector_impl" }
%"struct.std::_Vector_base<int, std::allocator<int>>::_Vector_impl" = type { %"struct.std::_Vector_base<int, std::allocator<int>>::_Vector_impl_data" }
%"struct.std::_Vector_base<int, std::allocator<int>>::_Vector_impl_data" = type { ptr, ptr, ptr }
%"class.colvarmodule::quaternion" = type { double, double, double, double }

; Function Attrs: mustprogress uwtable
define void @_ZNK6colvar9euler_psi11dist2_lgradERK11colvarvalueS3_(ptr dead_on_unwind noalias writable sret(%class.colvarvalue) align 8 %0, ptr noundef nonnull align 8 dereferenceable(2336) %1, ptr noundef nonnull align 8 dereferenceable(168) %2, ptr noundef nonnull align 8 dereferenceable(168) %3) unnamed_addr #2 align 2 {
  %5 = alloca ptr, align 8
  %6 = alloca ptr, align 8
  %7 = alloca ptr, align 8
  %8 = alloca ptr, align 8
  %9 = alloca double, align 8
  %10 = alloca double, align 8
  store ptr %0, ptr %5, align 8
  store ptr %1, ptr %6, align 8
  store ptr %2, ptr %7, align 8
  store ptr %3, ptr %8, align 8
  %11 = load ptr, ptr %7, align 8
  %12 = getelementptr inbounds %class.colvarvalue, ptr %11, i32 0, i32 1
  %13 = load double, ptr %12, align 8
  %14 = load ptr, ptr %8, align 8
  %15 = getelementptr inbounds %class.colvarvalue, ptr %14, i32 0, i32 1
  %16 = load double, ptr %15, align 8
  %17 = fsub double %13, %16
  store double %17, ptr %9, align 8
  %18 = load double, ptr %9, align 8
  %19 = fcmp olt double %18, -1.800000e+02
  br i1 %19, label %20, label %23

20:                                               ; preds = %4
  %21 = load double, ptr %9, align 8
  %22 = fadd double %21, 3.600000e+02
  br label %33

23:                                               ; preds = %4
  %24 = load double, ptr %9, align 8
  %25 = fcmp ogt double %24, 1.800000e+02
  br i1 %25, label %26, label %29

26:                                               ; preds = %23
  %27 = load double, ptr %9, align 8
  %28 = fsub double %27, 3.600000e+02
  br label %31

29:                                               ; preds = %23
  %30 = load double, ptr %9, align 8
  br label %31

31:                                               ; preds = %29, %26
  %32 = phi double [ %28, %26 ], [ %30, %29 ]
  br label %33

33:                                               ; preds = %31, %20
  %34 = phi double [ %22, %20 ], [ %32, %31 ]
  store double %34, ptr %9, align 8
  %35 = load double, ptr %9, align 8
  %36 = fmul double 2.000000e+00, %35
  store double %36, ptr %10, align 8
  call void @_ZN11colvarvalueC1ERKd(ptr noundef nonnull align 8 dereferenceable(168) %0, ptr noundef nonnull align 8 dereferenceable(8) %10)
  ret void
}